target datalayout = "e-m:e-p270:32:32-p271:32:32-p272:64:64-i64:64-i128:128-f80:128-n8:16:32:64-S128"
target triple = "x86_64-pc-linux-gnu"

%"class.boost::unit_test::basic_cstring" = type { ptr, ptr }
%"struct.boost::debug::(anonymous namespace)::process_info" = type <{ i32, [4 x i8], %"class.boost::unit_test::basic_cstring", %"class.boost::unit_test::basic_cstring", [501 x i8], [501 x i8], [6 x i8] }>

@.str = private unnamed_addr constant [9 x i8] c"gdb;lldb\00", align 1

; Function Attrs: mustprogress nounwind uwtable
define linkonce_odr hidden noundef zeroext i1 @_ZN5boost9unit_test9ut_detail20bcs_char_traits_implIKcE2ltEcc(i8 noundef signext %0, i8 noundef signext %1) #5 comdat align 2 {
  %3 = alloca i8, align 1
  %4 = alloca i8, align 1
  store i8 %0, ptr %3, align 1, !tbaa !18
  store i8 %1, ptr %4, align 1, !tbaa !18
  %5 = load i8, ptr %3, align 1, !tbaa !18
  %6 = sext i8 %5 to i32
  %7 = load i8, ptr %4, align 1, !tbaa !18
  %8 = sext i8 %7 to i32
  %9 = icmp slt i32 %6, %8
  ret i1 %9
}

; Function Attrs: mustprogress nounwind uwtable
define linkonce_odr hidden noundef zeroext i1 @_ZN5boost9unit_test9ut_detail20bcs_char_traits_implIKcE2eqEcc(i8 noundef signext %0, i8 noundef signext %1) #5 comdat align 2 {
  %3 = alloca i8, align 1
  %4 = alloca i8, align 1
  store i8 %0, ptr %3, align 1, !tbaa !18
  store i8 %1, ptr %4, align 1, !tbaa !18
  %5 = load i8, ptr %3, align 1, !tbaa !18
  %6 = sext i8 %5 to i32
  %7 = load i8, ptr %4, align 1, !tbaa !18
  %8 = sext i8 %7 to i32
  %9 = icmp eq i32 %6, %8
  ret i1 %9
}

; Function Attrs: mustprogress uwtable
define linkonce_odr hidden noundef i32 @_ZN5boost9unit_test9ut_detail20bcs_char_traits_implIKcE7compareEPS3_S5_m(ptr noundef %0, ptr noundef %1, i64 noundef %2) #1 comdat align 2 {
  %4 = alloca i32, align 4
  %5 = alloca ptr, align 8
  %6 = alloca ptr, align 8
  %7 = alloca i64, align 8
  store ptr %0, ptr %5, align 8, !tbaa !3
  store ptr %1, ptr %6, align 8, !tbaa !3
  store i64 %2, ptr %7, align 8, !tbaa !11
  br label %8

8:                                                ; preds = %24, %3
  %9 = load i64, ptr %7, align 8, !tbaa !11
  %10 = icmp ugt i64 %9, 0
  br i1 %10, label %11, label %31

11:                                               ; preds = %8
  %12 = load ptr, ptr %5, align 8, !tbaa !3
  %13 = load i8, ptr %12, align 1, !tbaa !18
  %14 = load ptr, ptr %6, align 8, !tbaa !3
  %15 = load i8, ptr %14, align 1, !tbaa !18
  %16 = call noundef zeroext i1 @_ZN5boost9unit_test9ut_detail20bcs_char_traits_implIKcE2eqEcc(i8 noundef signext %13, i8 noundef signext %15)
  br i1 %16, label %24, label %17

17:                                               ; preds = %11
  %18 = load ptr, ptr %5, align 8, !tbaa !3
  %19 = load i8, ptr %18, align 1, !tbaa !18
  %20 = load ptr, ptr %6, align 8, !tbaa !3
  %21 = load i8, ptr %20, align 1, !tbaa !18
  %22 = call noundef zeroext i1 @_ZN5boost9unit_test9ut_detail20bcs_char_traits_implIKcE2ltEcc(i8 noundef signext %19, i8 noundef signext %21)
  %23 = select i1 %22, i32 -1, i32 1
  store i32 %23, ptr %4, align 4
  br label %32

24:                                               ; preds = %11
  %25 = load ptr, ptr %5, align 8, !tbaa !3
  %26 = getelementptr inbounds nuw i8, ptr %25, i32 1
  store ptr %26, ptr %5, align 8, !tbaa !3
  %27 = load ptr, ptr %6, align 8, !tbaa !3
  %28 = getelementptr inbounds nuw i8, ptr %27, i32 1
  store ptr %28, ptr %6, align 8, !tbaa !3
  %29 = load i64, ptr %7, align 8, !tbaa !11
  %30 = add i64 %29, -1
  store i64 %30, ptr %7, align 8, !tbaa !11
  br label %8, !llvm.loop !85

31:                                               ; preds = %8
  store i32 0, ptr %4, align 4
  br label %32

32:                                               ; preds = %31, %17
  %33 = load i32, ptr %4, align 4
  ret i32 %33
}

; Function Attrs: inlinehint mustprogress nounwind uwtable
define linkonce_odr hidden noundef ptr @_ZN5boost9unit_test13basic_cstringIKcE5beginEv(ptr noundef nonnull align 8 dereferenceable(16) %0) #2 comdat align 2 {
  %2 = alloca ptr, align 8
  store ptr %0, ptr %2, align 8, !tbaa !3
  %3 = load ptr, ptr %2, align 8
  %4 = getelementptr inbounds nuw %"class.boost::unit_test::basic_cstring", ptr %3, i32 0, i32 0
  %5 = load ptr, ptr %4, align 8, !tbaa !13
  ret ptr %5
}

; Function Attrs: inlinehint mustprogress nounwind uwtable
define linkonce_odr hidden noundef ptr @_ZNK5boost9unit_test13basic_cstringIKcE5beginEv(ptr noundef nonnull align 8 dereferenceable(16) %0) #2 comdat align 2 {
  %2 = alloca ptr, align 8
  store ptr %0, ptr %2, align 8, !tbaa !3
  %3 = load ptr, ptr %2, align 8
  %4 = getelementptr inbounds nuw %"class.boost::unit_test::basic_cstring", ptr %3, i32 0, i32 0
  %5 = load ptr, ptr %4, align 8, !tbaa !13
  ret ptr %5
}

; Function Attrs: inlinehint mustprogress nounwind uwtable
define linkonce_odr hidden noundef ptr @_ZNK5boost9unit_test13basic_cstringIKcE3endEv(ptr noundef nonnull align 8 dereferenceable(16) %0) #2 comdat align 2 {
  %2 = alloca ptr, align 8
  store ptr %0, ptr %2, align 8, !tbaa !3
  %3 = load ptr, ptr %2, align 8
  %4 = getelementptr inbounds nuw %"class.boost::unit_test::basic_cstring", ptr %3, i32 0, i32 1
  %5 = load ptr, ptr %4, align 8, !tbaa !15
  ret ptr %5
}

; Function Attrs: inlinehint mustprogress nounwind uwtable
define linkonce_odr hidden noundef i64 @_ZNK5boost9unit_test13basic_cstringIKcE4sizeEv(ptr noundef nonnull align 8 dereferenceable(16) %0) #2 comdat align 2 {
  %2 = alloca ptr, align 8
  store ptr %0, ptr %2, align 8, !tbaa !3
  %3 = load ptr, ptr %2, align 8
  %4 = getelementptr inbounds nuw %"class.boost::unit_test::basic_cstring", ptr %3, i32 0, i32 1
  %5 = load ptr, ptr %4, align 8, !tbaa !15
  %6 = getelementptr inbounds nuw %"class.boost::unit_test::basic_cstring", ptr %3, i32 0, i32 0
  %7 = load ptr, ptr %6, align 8, !tbaa !13
  %8 = ptrtoint ptr %5 to i64
  %9 = ptrtoint ptr %7 to i64
  %10 = sub i64 %8, %9
  ret i64 %10
}

; Function Attrs: inlinehint mustprogress nounwind uwtable
define linkonce_odr hidden noundef zeroext i1 @_ZNK5boost9unit_test13basic_cstringIKcE8is_emptyEv(ptr noundef nonnull align 8 dereferenceable(16) %0) #2 comdat align 2 {
  %2 = alloca ptr, align 8
  store ptr %0, ptr %2, align 8, !tbaa !3
  %3 = load ptr, ptr %2, align 8
  %4 = getelementptr inbounds nuw %"class.boost::unit_test::basic_cstring", ptr %3, i32 0, i32 1
  %5 = load ptr, ptr %4, align 8, !tbaa !15
  %6 = getelementptr inbounds nuw %"class.boost::unit_test::basic_cstring", ptr %3, i32 0, i32 0
  %7 = load ptr, ptr %6, align 8, !tbaa !13
  %8 = icmp eq ptr %5, %7
  ret i1 %8
}

; Function Attrs: inlinehint mustprogress nounwind uwtable
define linkonce_odr hidden void @_ZN5boost9unit_test13basic_cstringIKcEC2ERKS3_(ptr noundef nonnull align 8 dereferenceable(16) %0, ptr noundef nonnull align 8 dereferenceable(16) %1) unnamed_addr #2 comdat align 2 {
  %3 = alloca ptr, align 8
  %4 = alloca ptr, align 8
  store ptr %0, ptr %3, align 8, !tbaa !3
  store ptr %1, ptr %4, align 8, !tbaa !3
  %5 = load ptr, ptr %3, align 8
  %6 = getelementptr inbounds nuw %"class.boost::unit_test::basic_cstring", ptr %5, i32 0, i32 0
  %7 = load ptr, ptr %4, align 8, !tbaa !3
  %8 = getelementptr inbounds nuw %"class.boost::unit_test::basic_cstring", ptr %7, i32 0, i32 0
  %9 = load ptr, ptr %8, align 8, !tbaa !13
  store ptr %9, ptr %6, align 8, !tbaa !13
  %10 = getelementptr inbounds nuw %"class.boost::unit_test::basic_cstring", ptr %5, i32 0, i32 1
  %11 = load ptr, ptr %4, align 8, !tbaa !3
  %12 = getelementptr inbounds nuw %"class.boost::unit_test::basic_cstring", ptr %11, i32 0, i32 1
  %13 = load ptr, ptr %12, align 8, !tbaa !15
  store ptr %13, ptr %10, align 8, !tbaa !15
  ret void
}

; Function Attrs: mustprogress nounwind uwtable
define internal noundef i32 @_ZNK5boost5debug12_GLOBAL__N_112process_info10parent_pidEv(ptr noundef nonnull align 8 dereferenceable(1042) %0) #5 align 2 {
  %2 = alloca ptr, align 8
  store ptr %0, ptr %2, align 8, !tbaa !3
  %3 = load ptr, ptr %2, align 8
  %4 = getelementptr inbounds nuw %"struct.boost::debug::(anonymous namespace)::process_info", ptr %3, i32 0, i32 0
  %5 = load i32, ptr %4, align 8, !tbaa !16
  ret i32 %5
}

; Function Attrs: inlinehint mustprogress uwtable
define linkonce_odr hidden noundef i64 @_ZNK5boost9unit_test13basic_cstringIKcE4findES3_(ptr noundef nonnull align 8 dereferenceable(16) %0, ptr noundef %1) #7 comdat align 2 {
  %3 = alloca i64, align 8
  %4 = alloca ptr, align 8
  %5 = alloca ptr, align 8
  %6 = alloca ptr, align 8
  %7 = alloca ptr, align 8
  %8 = alloca i32, align 4
  store ptr %0, ptr %4, align 8, !tbaa !3
  store ptr %1, ptr %5, align 8, !tbaa !3
  %9 = load ptr, ptr %4, align 8
  %10 = call noundef zeroext i1 @_ZNK5boost9unit_test13basic_cstringIKcE8is_emptyEv(ptr noundef nonnull align 8 dereferenceable(16) %1)
  br i1 %10, label %15, label %11

11:                                               ; preds = %2
  %12 = call noundef i64 @_ZNK5boost9unit_test13basic_cstringIKcE4sizeEv(ptr noundef nonnull align 8 dereferenceable(16) %1)
  %13 = call noundef i64 @_ZNK5boost9unit_test13basic_cstringIKcE4sizeEv(ptr noundef nonnull align 8 dereferenceable(16) %9)
  %14 = icmp ugt i64 %12, %13
  br i1 %14, label %15, label %16

15:                                               ; preds = %11, %2
  store i64 -1, ptr %3, align 8
  br label %48

16:                                               ; preds = %11
  call void @llvm.lifetime.start.p0(i64 8, ptr %6) #3
  %17 = call noundef ptr @_ZNK5boost9unit_test13basic_cstringIKcE3endEv(ptr noundef nonnull align 8 dereferenceable(16) %9)
  %18 = call noundef i64 @_ZNK5boost9unit_test13basic_cstringIKcE4sizeEv(ptr noundef nonnull align 8 dereferenceable(16) %1)
  %19 = sub i64 0, %18
  %20 = getelementptr inbounds i8, ptr %17, i64 %19
  %21 = getelementptr inbounds i8, ptr %20, i64 1
  store ptr %21, ptr %6, align 8, !tbaa !3
  call void @llvm.lifetime.start.p0(i64 8, ptr %7) #3
  %22 = call noundef ptr @_ZNK5boost9unit_test13basic_cstringIKcE5beginEv(ptr noundef nonnull align 8 dereferenceable(16) %9)
  store ptr %22, ptr %7, align 8, !tbaa !3
  br label %23

23:                                               ; preds = %41, %16
  %24 = load ptr, ptr %7, align 8, !tbaa !3
  %25 = load ptr, ptr %6, align 8, !tbaa !3
  %26 = icmp ne ptr %24, %25
  br i1 %26, label %28, label %27

27:                                               ; preds = %23
  store i32 2, ptr %8, align 4
  br label %44

28:                                               ; preds = %23
  %29 = load ptr, ptr %7, align 8, !tbaa !3
  %30 = call noundef ptr @_ZN5boost9unit_test13basic_cstringIKcE5beginEv(ptr noundef nonnull align 8 dereferenceable(16) %1)
  %31 = call noundef i64 @_ZNK5boost9unit_test13basic_cstringIKcE4sizeEv(ptr noundef nonnull align 8 dereferenceable(16) %1)
  %32 = call noundef i32 @_ZN5boost9unit_test9ut_detail20bcs_char_traits_implIKcE7compareEPS3_S5_m(ptr noundef %29, ptr noundef %30, i64 noundef %31)
  %33 = icmp eq i32 %32, 0
  br i1 %33, label %34, label %40

34:                                               ; preds = %28
  %35 = load ptr, ptr %7, align 8, !tbaa !3
  %36 = call noundef ptr @_ZNK5boost9unit_test13basic_cstringIKcE5beginEv(ptr noundef nonnull align 8 dereferenceable(16) %9)
  %37 = ptrtoint ptr %35 to i64
  %38 = ptrtoint ptr %36 to i64
  %39 = sub i64 %37, %38
  store i64 %39, ptr %3, align 8
  store i32 1, ptr %8, align 4
  br label %44

40:                                               ; preds = %28
  br label %41

41:                                               ; preds = %40
  %42 = load ptr, ptr %7, align 8, !tbaa !3
  %43 = getelementptr inbounds nuw i8, ptr %42, i32 1
  store ptr %43, ptr %7, align 8, !tbaa !3
  br label %23, !llvm.loop !21

44:                                               ; preds = %34, %27
  call void @llvm.lifetime.end.p0(i64 8, ptr %7) #3
  %45 = load i32, ptr %8, align 4
  switch i32 %45, label %47 [
    i32 2, label %46
  ]

46:                                               ; preds = %44
  store i64 -1, ptr %3, align 8
  store i32 1, ptr %8, align 4
  br label %47

47:                                               ; preds = %46, %44
  call void @llvm.lifetime.end.p0(i64 8, ptr %6) #3
  br label %48

48:                                               ; preds = %47, %15
  %49 = load i64, ptr %3, align 8
  ret i64 %49
}

; Function Attrs: mustprogress uwtable
define internal void @_ZNK5boost5debug12_GLOBAL__N_112process_info11binary_nameEv(ptr dead_on_unwind noalias writable sret(%"class.boost::unit_test::basic_cstring") align 8 %0, ptr noundef nonnull align 8 dereferenceable(1042) %1) #1 align 2 {
  %3 = alloca ptr, align 8
  %4 = alloca ptr, align 8
  store ptr %0, ptr %3, align 8
  store ptr %1, ptr %4, align 8, !tbaa !3
  %5 = load ptr, ptr %4, align 8
  %6 = getelementptr inbounds nuw %"struct.boost::debug::(anonymous namespace)::process_info", ptr %5, i32 0, i32 2
  call void @_ZN5boost9unit_test13basic_cstringIKcEC2ERKS3_(ptr noundef nonnull align 8 dereferenceable(16) %0, ptr noundef nonnull align 8 dereferenceable(16) %6)
  ret void
}

; Function Attrs: mustprogress nounwind uwtable
define linkonce_odr hidden void @_ZN5boost9unit_test13basic_cstringIKcEC2ImEEPS2_T_(ptr noundef nonnull align 8 dereferenceable(16) %0, ptr noundef %1, i64 noundef %2) unnamed_addr #5 comdat align 2 {
  %4 = alloca ptr, align 8
  %5 = alloca ptr, align 8
  %6 = alloca i64, align 8
  store ptr %0, ptr %4, align 8, !tbaa !3
  store ptr %1, ptr %5, align 8, !tbaa !3
  store i64 %2, ptr %6, align 8, !tbaa !11
  %7 = load ptr, ptr %4, align 8
  %8 = getelementptr inbounds nuw %"class.boost::unit_test::basic_cstring", ptr %7, i32 0, i32 0
  %9 = load ptr, ptr %5, align 8, !tbaa !3
  store ptr %9, ptr %8, align 8, !tbaa !13
  %10 = getelementptr inbounds nuw %"class.boost::unit_test::basic_cstring", ptr %7, i32 0, i32 1
  %11 = getelementptr inbounds nuw %"class.boost::unit_test::basic_cstring", ptr %7, i32 0, i32 0
  %12 = load ptr, ptr %11, align 8, !tbaa !13
  %13 = load i64, ptr %6, align 8, !tbaa !11
  %14 = getelementptr inbounds nuw i8, ptr %12, i64 %13
  store ptr %14, ptr %10, align 8, !tbaa !15
  ret void
}

; Function Attrs: mustprogress uwtable
define noundef zeroext i1 @_ZN5boost5debug14under_debuggerEv() #1 {
  %1 = alloca i1, align 1
  %2 = alloca %"class.boost::unit_test::basic_cstring", align 8
  %3 = alloca i32, align 4
  %4 = alloca %"struct.boost::debug::(anonymous namespace)::process_info", align 8
  %5 = alloca %"class.boost::unit_test::basic_cstring", align 8
  %6 = alloca i32, align 4
  call void @llvm.lifetime.start.p0(i64 16, ptr %2) #3
  call void @_ZN5boost9unit_test13basic_cstringIKcEC2ImEEPS2_T_(ptr noundef nonnull align 8 dereferenceable(16) %2, ptr noundef @.str, i64 noundef 8)
  call void @llvm.lifetime.start.p0(i64 4, ptr %3) #3
  %7 = call i32 @getpid() #3
  store i32 %7, ptr %3, align 4, !tbaa !7
  br label %8

8:                                                ; preds = %27, %0
  %9 = load i32, ptr %3, align 4, !tbaa !7
  %10 = icmp ne i32 %9, 0
  br i1 %10, label %11, label %28

11:                                               ; preds = %8
  call void @llvm.lifetime.start.p0(i64 1048, ptr %4) #3
  %12 = load i32, ptr %3, align 4, !tbaa !7
  call void @_ZN5boost5debug12_GLOBAL__N_112process_infoC2Ei(ptr noundef nonnull align 8 dereferenceable(1042) %4, i32 noundef %12)
  call void @_ZNK5boost5debug12_GLOBAL__N_112process_info11binary_nameEv(ptr dead_on_unwind writable sret(%"class.boost::unit_test::basic_cstring") align 8 %5, ptr noundef nonnull align 8 dereferenceable(1042) %4)
  %13 = call noundef i64 @_ZNK5boost9unit_test13basic_cstringIKcE4findES3_(ptr noundef nonnull align 8 dereferenceable(16) %2, ptr noundef %5)
  %14 = icmp ne i64 %13, -1
  br i1 %14, label %15, label %16

15:                                               ; preds = %11
  store i1 true, ptr %1, align 1
  store i32 1, ptr %6, align 4
  br label %25

16:                                               ; preds = %11
  %17 = call noundef i32 @_ZNK5boost5debug12_GLOBAL__N_112process_info10parent_pidEv(ptr noundef nonnull align 8 dereferenceable(1042) %4)
  %18 = load i32, ptr %3, align 4, !tbaa !7
  %19 = icmp eq i32 %17, %18
  br i1 %19, label %20, label %21

20:                                               ; preds = %16
  br label %23

21:                                               ; preds = %16
  %22 = call noundef i32 @_ZNK5boost5debug12_GLOBAL__N_112process_info10parent_pidEv(ptr noundef nonnull align 8 dereferenceable(1042) %4)
  br label %23

23:                                               ; preds = %21, %20
  %24 = phi i32 [ 0, %20 ], [ %22, %21 ]
  store i32 %24, ptr %3, align 4, !tbaa !7
  store i32 0, ptr %6, align 4
  br label %25

25:                                               ; preds = %23, %15
  call void @llvm.lifetime.end.p0(i64 1048, ptr %4) #3
  %26 = load i32, ptr %6, align 4
  switch i32 %26, label %29 [
    i32 0, label %27
  ]

27:                                               ; preds = %25
  br label %8, !llvm.loop !9

28:                                               ; preds = %8
  store i1 false, ptr %1, align 1
  store i32 1, ptr %6, align 4
  br label %29

29:                                               ; preds = %28, %25
  call void @llvm.lifetime.end.p0(i64 4, ptr %3) #3
  call void @llvm.lifetime.end.p0(i64 16, ptr %2) #3
  %30 = load i1, ptr %1, align 1
  ret i1 %30
}