; Function Attrs: mustprogress uwtable
define noundef zeroext i1 @_ZN5boost5debug14under_debuggerEv() local_unnamed_addr #2 {
  %1 = alloca %"struct.boost::debug::(anonymous namespace)::process_info", align 8
  %2 = tail call i32 @getpid() #32
  %.not21.not = icmp eq i32 %2, 0
  br i1 %.not21.not, label %.loopexit, label %.lr.ph

.lr.ph:                                           ; preds = %0
  %3 = getelementptr inbounds i8, ptr %1, i64 8
  %4 = getelementptr inbounds i8, ptr %1, i64 16
  br label %5

5:                                                ; preds = %.lr.ph, %_ZNK5boost9unit_test13basic_cstringIKcE4findES3_.exit.thread
  %.0422 = phi i32 [ %2, %.lr.ph ], [ %.val9, %_ZNK5boost9unit_test13basic_cstringIKcE4findES3_.exit.thread ]
  call void @llvm.lifetime.start.p0(i64 1048, ptr nonnull %1) #32
  call fastcc void @_ZN5boost5debug12_GLOBAL__N_112process_infoC2Ei(ptr noundef nonnull align 8 dereferenceable(1042) %1, i32 noundef %.0422)
  %.val = load ptr, ptr %3, align 8, !tbaa !16
  %.val8 = load ptr, ptr %4, align 8, !tbaa !18
  %6 = icmp eq ptr %.val8, %.val
  br i1 %6, label %_ZNK5boost9unit_test13basic_cstringIKcE4findES3_.exit.thread, label %7

7:                                                ; preds = %5
  %8 = ptrtoint ptr %.val8 to i64
  %9 = ptrtoint ptr %.val to i64
  %10 = sub i64 %8, %9
  %11 = icmp ugt i64 %10, 8
  br i1 %11, label %_ZNK5boost9unit_test13basic_cstringIKcE4findES3_.exit.thread, label %12

12:                                               ; preds = %7
  %13 = sub nsw i64 0, %10
  %14 = getelementptr inbounds i8, ptr getelementptr inbounds nuw (i8, ptr @.str, i64 8), i64 %13
  %15 = getelementptr inbounds i8, ptr %14, i64 1
  %.not14.i = icmp eq ptr %15, @.str
  br i1 %.not14.i, label %_ZNK5boost9unit_test13basic_cstringIKcE4findES3_.exit.thread, label %.lr.ph.i

.lr.ph.i:                                         ; preds = %12
  %.not12.i.i = icmp eq i64 %10, 0
  br i1 %.not12.i.i, label %_ZNK5boost9unit_test13basic_cstringIKcE4findES3_.exit, label %.lr.ph.i.preheader.i

.lr.ph.i.preheader.i:                             ; preds = %.lr.ph.i, %_ZN5boost9unit_test9ut_detail20bcs_char_traits_implIKcE7compareEPS3_S5_m.exit.i
  %.0715.i = phi ptr [ %23, %_ZN5boost9unit_test9ut_detail20bcs_char_traits_implIKcE7compareEPS3_S5_m.exit.i ], [ @.str, %.lr.ph.i ]
  br label %.lr.ph.i.i

.lr.ph.i.i:                                       ; preds = %19, %.lr.ph.i.preheader.i
  %.015.i.i = phi i64 [ %22, %19 ], [ %10, %.lr.ph.i.preheader.i ]
  %.0814.i.i = phi ptr [ %21, %19 ], [ %.val, %.lr.ph.i.preheader.i ]
  %.0913.i.i = phi ptr [ %20, %19 ], [ %.0715.i, %.lr.ph.i.preheader.i ]
  %16 = load i8, ptr %.0913.i.i, align 1, !tbaa !15
  %17 = load i8, ptr %.0814.i.i, align 1, !tbaa !15
  %18 = icmp eq i8 %16, %17
  br i1 %18, label %19, label %_ZN5boost9unit_test9ut_detail20bcs_char_traits_implIKcE7compareEPS3_S5_m.exit.i

19:                                               ; preds = %.lr.ph.i.i
  %20 = getelementptr inbounds nuw i8, ptr %.0913.i.i, i64 1
  %21 = getelementptr inbounds nuw i8, ptr %.0814.i.i, i64 1
  %22 = add i64 %.015.i.i, -1
  %.not.i.i = icmp eq i64 %22, 0
  br i1 %.not.i.i, label %_ZN5boost9unit_test9ut_detail20bcs_char_traits_implIKcE7compareEPS3_S5_m.exit.thread.loopexit.i, label %.lr.ph.i.i, !llvm.loop !19

_ZN5boost9unit_test9ut_detail20bcs_char_traits_implIKcE7compareEPS3_S5_m.exit.thread.loopexit.i: ; preds = %19
  %.pre.i = ptrtoint ptr %.0715.i to i64
  br label %_ZNK5boost9unit_test13basic_cstringIKcE4findES3_.exit

_ZN5boost9unit_test9ut_detail20bcs_char_traits_implIKcE7compareEPS3_S5_m.exit.i: ; preds = %.lr.ph.i.i
  %23 = getelementptr inbounds nuw i8, ptr %.0715.i, i64 1
  %.not.i = icmp eq ptr %.0715.i, %14
  br i1 %.not.i, label %_ZNK5boost9unit_test13basic_cstringIKcE4findES3_.exit.thread, label %.lr.ph.i.preheader.i, !llvm.loop !21

_ZNK5boost9unit_test13basic_cstringIKcE4findES3_.exit: ; preds = %.lr.ph.i, %_ZN5boost9unit_test9ut_detail20bcs_char_traits_implIKcE7compareEPS3_S5_m.exit.thread.loopexit.i
  %.pre-phi.i = phi i64 [ %.pre.i, %_ZN5boost9unit_test9ut_detail20bcs_char_traits_implIKcE7compareEPS3_S5_m.exit.thread.loopexit.i ], [ ptrtoint (ptr @.str to i64), %.lr.ph.i ]
  %24 = sub i64 %.pre-phi.i, ptrtoint (ptr @.str to i64)
  %.not7 = icmp eq i64 %24, -1
  br i1 %.not7, label %_ZNK5boost9unit_test13basic_cstringIKcE4findES3_.exit.thread, label %.thread

.thread:                                          ; preds = %_ZNK5boost9unit_test13basic_cstringIKcE4findES3_.exit
  call void @llvm.lifetime.end.p0(i64 1048, ptr nonnull %1) #32
  br label %.loopexit

_ZNK5boost9unit_test13basic_cstringIKcE4findES3_.exit.thread: ; preds = %_ZN5boost9unit_test9ut_detail20bcs_char_traits_implIKcE7compareEPS3_S5_m.exit.i, %12, %5, %7, %_ZNK5boost9unit_test13basic_cstringIKcE4findES3_.exit
  %.val9 = load i32, ptr %1, align 8, !tbaa !22
  %25 = icmp eq i32 %.val9, %.0422
  call void @llvm.lifetime.end.p0(i64 1048, ptr nonnull %1) #32
  %.not.not26 = icmp eq i32 %.val9, 0
  %.not.not = or i1 %25, %.not.not26
  br i1 %.not.not, label %.loopexit, label %5

.loopexit:                                        ; preds = %_ZNK5boost9unit_test13basic_cstringIKcE4findES3_.exit.thread, %0, %.thread
  %.not20 = phi i1 [ true, %.thread ], [ false, %0 ], [ false, %_ZNK5boost9unit_test13basic_cstringIKcE4findES3_.exit.thread ]
  ret i1 %.not20
}